target datalayout = "e-m:e-p270:32:32-p271:32:32-p272:64:64-i64:64-i128:128-f80:128-n8:16:32:64-S128"
target triple = "x86_64-pc-linux-gnu"

%struct.H5O_loc_t = type { ptr, i64, i8 }
%struct.H5F_t = type { ptr, ptr, ptr, ptr, i32, ptr, i8, i8, ptr, i32 }
%struct.H5C_cache_entry_t = type { ptr, i64, i64, ptr, i8, ptr, i8, i8, i8, i8, i32, i8, i8, i8, i8, i8, i32, ptr, i32, i32, i32, i32, i32, i8, i8, ptr, ptr, ptr, ptr, ptr, ptr, i8, i32, i8, i64, ptr, i64, i64, i32, i8, i32, i32, i8, ptr, ptr, ptr }
%struct.H5F_shared_t = type { ptr, ptr, ptr, i8, i32, i32, %struct.H5F_mtab_t, ptr, i8, i8, i64, i32, i32, i64, i64, ptr, ptr, %struct.H5AC_cache_config_t, %struct.H5AC_cache_image_config_t, i8, i8, ptr, i64, i32, i8, i64, i64, double, i64, i64, i64, i32, i32, i32, i8, i32, ptr, ptr, ptr, ptr, i8, i8, i8, i64, ptr, ptr, i32, i64, i8, i32, i8, i64, i8, [13 x i32], [13 x i64], [13 x ptr], i8, i64, i64, [7 x i32], [7 x i32], %struct.H5F_blk_aggr_t, %struct.H5F_blk_aggr_t, i64, i64, %struct.H5F_meta_accum_t, i32, i32, [30 x ptr], %struct.H5F_object_flush_t, i8, ptr }
%struct.H5F_mtab_t = type { i32, i32, ptr }
%struct.H5AC_cache_config_t = type { i32, i8, i8, i8, [1025 x i8], i8, i8, i64, double, i64, i64, i64, i32, double, double, i8, i64, i32, double, double, i32, double, double, i8, i64, i32, i8, double, i64, i32 }
%struct.H5AC_cache_image_config_t = type { i32, i8, i8, i32 }
%struct.H5F_blk_aggr_t = type { i64, i64, i64, i64, i64 }
%struct.H5F_meta_accum_t = type { ptr, i64, i64, i64, i64, i64, i8 }
%struct.H5F_object_flush_t = type { ptr, ptr }
%struct.H5F_super_t = type { %struct.H5C_cache_entry_t, i32, i8, i8, i8, i32, [2 x i32], i64, i64, i64, i64, ptr }
%struct.H5O_hdr_info_t = type { i32, i32, i32, i32, %struct.anon, %struct.anon.0 }
%struct.anon = type { i64, i64, i64, i64 }
%struct.anon.0 = type { i64, i64 }

@H5F_init_g = external global i8, align 1
@H5_libterm_g = external global i8, align 1
@.str.1 = private unnamed_addr constant [102 x i8] c"generated/home/dtcxzyw/WorkSpace/Projects/compilers/llvm-opt-benchmark/bench/hdf5/hdf5/src/H5Fsuper.c\00", align 1
@H5E_FILE_g = external global i64, align 8
@H5E_CANTGET_g = external global i64, align 8
@__func__.H5F__super_size = private unnamed_addr constant [16 x i8] c"H5F__super_size\00", align 1
@.str.92 = private unnamed_addr constant [45 x i8] c"unable to retrieve superblock extension info\00", align 1

; Function Attrs: nounwind uwtable
define i32 @H5F__super_size(ptr noundef %0, ptr noundef %1, ptr noundef %2) #0 {
  %4 = alloca i32, align 4
  %5 = alloca ptr, align 8
  %6 = alloca ptr, align 8
  %7 = alloca ptr, align 8
  %8 = alloca i32, align 4
  %9 = alloca i32, align 4
  %10 = alloca i8, align 1
  %11 = alloca %struct.H5O_loc_t, align 8
  %12 = alloca %struct.H5O_hdr_info_t, align 8
  %13 = alloca i32, align 4
  store ptr %0, ptr %5, align 8, !tbaa !3
  store ptr %1, ptr %6, align 8, !tbaa !130
  store ptr %2, ptr %7, align 8, !tbaa !130
  call void @llvm.lifetime.start.p0(i64 4, ptr %8) #7
  store i32 0, ptr %8, align 4, !tbaa !12
  call void @llvm.lifetime.start.p0(i64 4, ptr %9) #7
  store i32 0, ptr %9, align 4, !tbaa !12
  call void @llvm.lifetime.start.p0(i64 1, ptr %10) #7
  store i8 0, ptr %10, align 1, !tbaa !14
  %14 = load i8, ptr @H5F_init_g, align 1, !tbaa !14, !range !16, !noundef !17
  %15 = trunc i8 %14 to i1
  br i1 %15, label %20, label %16

16:                                               ; preds = %3
  %17 = load i8, ptr @H5_libterm_g, align 1, !tbaa !14, !range !16, !noundef !17
  %18 = trunc i8 %17 to i1
  %19 = xor i1 %18, true
  br label %20

20:                                               ; preds = %16, %3
  %21 = phi i1 [ true, %3 ], [ %19, %16 ]
  %22 = xor i1 %21, true
  %23 = xor i1 %22, true
  %24 = zext i1 %23 to i32
  %25 = sext i32 %24 to i64
  %26 = call i64 @llvm.expect.i64(i64 %25, i64 1)
  %27 = icmp ne i64 %26, 0
  br i1 %27, label %28, label %287

28:                                               ; preds = %20
  %29 = load ptr, ptr %6, align 8, !tbaa !130
  %30 = icmp ne ptr %29, null
  br i1 %30, label %31, label %224

31:                                               ; preds = %28
  %32 = load ptr, ptr %5, align 8, !tbaa !3
  %33 = getelementptr inbounds nuw %struct.H5F_t, ptr %32, i32 0, i32 2
  %34 = load ptr, ptr %33, align 8, !tbaa !31
  %35 = getelementptr inbounds nuw %struct.H5F_shared_t, ptr %34, i32 0, i32 1
  %36 = load ptr, ptr %35, align 8, !tbaa !109
  %37 = getelementptr inbounds nuw %struct.H5F_super_t, ptr %36, i32 0, i32 1
  %38 = load i32, ptr %37, align 8, !tbaa !64
  %39 = icmp eq i32 %38, 0
  br i1 %39, label %40, label %98

40:                                               ; preds = %31
  %41 = load ptr, ptr %5, align 8, !tbaa !3
  %42 = getelementptr inbounds nuw %struct.H5F_t, ptr %41, i32 0, i32 2
  %43 = load ptr, ptr %42, align 8, !tbaa !31
  %44 = getelementptr inbounds nuw %struct.H5F_shared_t, ptr %43, i32 0, i32 1
  %45 = load ptr, ptr %44, align 8, !tbaa !109
  %46 = getelementptr inbounds nuw %struct.H5F_super_t, ptr %45, i32 0, i32 2
  %47 = load i8, ptr %46, align 4, !tbaa !125
  %48 = zext i8 %47 to i32
  %49 = add nsw i32 15, %48
  %50 = load ptr, ptr %5, align 8, !tbaa !3
  %51 = getelementptr inbounds nuw %struct.H5F_t, ptr %50, i32 0, i32 2
  %52 = load ptr, ptr %51, align 8, !tbaa !31
  %53 = getelementptr inbounds nuw %struct.H5F_shared_t, ptr %52, i32 0, i32 1
  %54 = load ptr, ptr %53, align 8, !tbaa !109
  %55 = getelementptr inbounds nuw %struct.H5F_super_t, ptr %54, i32 0, i32 2
  %56 = load i8, ptr %55, align 4, !tbaa !125
  %57 = zext i8 %56 to i32
  %58 = add nsw i32 %49, %57
  %59 = load ptr, ptr %5, align 8, !tbaa !3
  %60 = getelementptr inbounds nuw %struct.H5F_t, ptr %59, i32 0, i32 2
  %61 = load ptr, ptr %60, align 8, !tbaa !31
  %62 = getelementptr inbounds nuw %struct.H5F_shared_t, ptr %61, i32 0, i32 1
  %63 = load ptr, ptr %62, align 8, !tbaa !109
  %64 = getelementptr inbounds nuw %struct.H5F_super_t, ptr %63, i32 0, i32 2
  %65 = load i8, ptr %64, align 4, !tbaa !125
  %66 = zext i8 %65 to i32
  %67 = add nsw i32 %58, %66
  %68 = load ptr, ptr %5, align 8, !tbaa !3
  %69 = getelementptr inbounds nuw %struct.H5F_t, ptr %68, i32 0, i32 2
  %70 = load ptr, ptr %69, align 8, !tbaa !31
  %71 = getelementptr inbounds nuw %struct.H5F_shared_t, ptr %70, i32 0, i32 1
  %72 = load ptr, ptr %71, align 8, !tbaa !109
  %73 = getelementptr inbounds nuw %struct.H5F_super_t, ptr %72, i32 0, i32 2
  %74 = load i8, ptr %73, align 4, !tbaa !125
  %75 = zext i8 %74 to i32
  %76 = add nsw i32 %67, %75
  %77 = load ptr, ptr %5, align 8, !tbaa !3
  %78 = getelementptr inbounds nuw %struct.H5F_t, ptr %77, i32 0, i32 2
  %79 = load ptr, ptr %78, align 8, !tbaa !31
  %80 = getelementptr inbounds nuw %struct.H5F_shared_t, ptr %79, i32 0, i32 1
  %81 = load ptr, ptr %80, align 8, !tbaa !109
  %82 = getelementptr inbounds nuw %struct.H5F_super_t, ptr %81, i32 0, i32 3
  %83 = load i8, ptr %82, align 1, !tbaa !127
  %84 = zext i8 %83 to i32
  %85 = load ptr, ptr %5, align 8, !tbaa !3
  %86 = getelementptr inbounds nuw %struct.H5F_t, ptr %85, i32 0, i32 2
  %87 = load ptr, ptr %86, align 8, !tbaa !31
  %88 = getelementptr inbounds nuw %struct.H5F_shared_t, ptr %87, i32 0, i32 1
  %89 = load ptr, ptr %88, align 8, !tbaa !109
  %90 = getelementptr inbounds nuw %struct.H5F_super_t, ptr %89, i32 0, i32 2
  %91 = load i8, ptr %90, align 4, !tbaa !125
  %92 = zext i8 %91 to i32
  %93 = add nsw i32 %84, %92
  %94 = add nsw i32 %93, 4
  %95 = add nsw i32 %94, 4
  %96 = add nsw i32 %95, 16
  %97 = add nsw i32 %76, %96
  br label %99

98:                                               ; preds = %31
  br label %99

99:                                               ; preds = %98, %40
  %100 = phi i32 [ %97, %40 ], [ 0, %98 ]
  %101 = load ptr, ptr %5, align 8, !tbaa !3
  %102 = getelementptr inbounds nuw %struct.H5F_t, ptr %101, i32 0, i32 2
  %103 = load ptr, ptr %102, align 8, !tbaa !31
  %104 = getelementptr inbounds nuw %struct.H5F_shared_t, ptr %103, i32 0, i32 1
  %105 = load ptr, ptr %104, align 8, !tbaa !109
  %106 = getelementptr inbounds nuw %struct.H5F_super_t, ptr %105, i32 0, i32 1
  %107 = load i32, ptr %106, align 8, !tbaa !64
  %108 = icmp eq i32 %107, 1
  br i1 %108, label %109, label %167

109:                                              ; preds = %99
  %110 = load ptr, ptr %5, align 8, !tbaa !3
  %111 = getelementptr inbounds nuw %struct.H5F_t, ptr %110, i32 0, i32 2
  %112 = load ptr, ptr %111, align 8, !tbaa !31
  %113 = getelementptr inbounds nuw %struct.H5F_shared_t, ptr %112, i32 0, i32 1
  %114 = load ptr, ptr %113, align 8, !tbaa !109
  %115 = getelementptr inbounds nuw %struct.H5F_super_t, ptr %114, i32 0, i32 2
  %116 = load i8, ptr %115, align 4, !tbaa !125
  %117 = zext i8 %116 to i32
  %118 = add nsw i32 19, %117
  %119 = load ptr, ptr %5, align 8, !tbaa !3
  %120 = getelementptr inbounds nuw %struct.H5F_t, ptr %119, i32 0, i32 2
  %121 = load ptr, ptr %120, align 8, !tbaa !31
  %122 = getelementptr inbounds nuw %struct.H5F_shared_t, ptr %121, i32 0, i32 1
  %123 = load ptr, ptr %122, align 8, !tbaa !109
  %124 = getelementptr inbounds nuw %struct.H5F_super_t, ptr %123, i32 0, i32 2
  %125 = load i8, ptr %124, align 4, !tbaa !125
  %126 = zext i8 %125 to i32
  %127 = add nsw i32 %118, %126
  %128 = load ptr, ptr %5, align 8, !tbaa !3
  %129 = getelementptr inbounds nuw %struct.H5F_t, ptr %128, i32 0, i32 2
  %130 = load ptr, ptr %129, align 8, !tbaa !31
  %131 = getelementptr inbounds nuw %struct.H5F_shared_t, ptr %130, i32 0, i32 1
  %132 = load ptr, ptr %131, align 8, !tbaa !109
  %133 = getelementptr inbounds nuw %struct.H5F_super_t, ptr %132, i32 0, i32 2
  %134 = load i8, ptr %133, align 4, !tbaa !125
  %135 = zext i8 %134 to i32
  %136 = add nsw i32 %127, %135
  %137 = load ptr, ptr %5, align 8, !tbaa !3
  %138 = getelementptr inbounds nuw %struct.H5F_t, ptr %137, i32 0, i32 2
  %139 = load ptr, ptr %138, align 8, !tbaa !31
  %140 = getelementptr inbounds nuw %struct.H5F_shared_t, ptr %139, i32 0, i32 1
  %141 = load ptr, ptr %140, align 8, !tbaa !109
  %142 = getelementptr inbounds nuw %struct.H5F_super_t, ptr %141, i32 0, i32 2
  %143 = load i8, ptr %142, align 4, !tbaa !125
  %144 = zext i8 %143 to i32
  %145 = add nsw i32 %136, %144
  %146 = load ptr, ptr %5, align 8, !tbaa !3
  %147 = getelementptr inbounds nuw %struct.H5F_t, ptr %146, i32 0, i32 2
  %148 = load ptr, ptr %147, align 8, !tbaa !31
  %149 = getelementptr inbounds nuw %struct.H5F_shared_t, ptr %148, i32 0, i32 1
  %150 = load ptr, ptr %149, align 8, !tbaa !109
  %151 = getelementptr inbounds nuw %struct.H5F_super_t, ptr %150, i32 0, i32 3
  %152 = load i8, ptr %151, align 1, !tbaa !127
  %153 = zext i8 %152 to i32
  %154 = load ptr, ptr %5, align 8, !tbaa !3
  %155 = getelementptr inbounds nuw %struct.H5F_t, ptr %154, i32 0, i32 2
  %156 = load ptr, ptr %155, align 8, !tbaa !31
  %157 = getelementptr inbounds nuw %struct.H5F_shared_t, ptr %156, i32 0, i32 1
  %158 = load ptr, ptr %157, align 8, !tbaa !109
  %159 = getelementptr inbounds nuw %struct.H5F_super_t, ptr %158, i32 0, i32 2
  %160 = load i8, ptr %159, align 4, !tbaa !125
  %161 = zext i8 %160 to i32
  %162 = add nsw i32 %153, %161
  %163 = add nsw i32 %162, 4
  %164 = add nsw i32 %163, 4
  %165 = add nsw i32 %164, 16
  %166 = add nsw i32 %145, %165
  br label %168

167:                                              ; preds = %99
  br label %168

168:                                              ; preds = %167, %109
  %169 = phi i32 [ %166, %109 ], [ 0, %167 ]
  %170 = add nsw i32 %100, %169
  %171 = load ptr, ptr %5, align 8, !tbaa !3
  %172 = getelementptr inbounds nuw %struct.H5F_t, ptr %171, i32 0, i32 2
  %173 = load ptr, ptr %172, align 8, !tbaa !31
  %174 = getelementptr inbounds nuw %struct.H5F_shared_t, ptr %173, i32 0, i32 1
  %175 = load ptr, ptr %174, align 8, !tbaa !109
  %176 = getelementptr inbounds nuw %struct.H5F_super_t, ptr %175, i32 0, i32 1
  %177 = load i32, ptr %176, align 8, !tbaa !64
  %178 = icmp uge i32 %177, 2
  br i1 %178, label %179, label %217

179:                                              ; preds = %168
  %180 = load ptr, ptr %5, align 8, !tbaa !3
  %181 = getelementptr inbounds nuw %struct.H5F_t, ptr %180, i32 0, i32 2
  %182 = load ptr, ptr %181, align 8, !tbaa !31
  %183 = getelementptr inbounds nuw %struct.H5F_shared_t, ptr %182, i32 0, i32 1
  %184 = load ptr, ptr %183, align 8, !tbaa !109
  %185 = getelementptr inbounds nuw %struct.H5F_super_t, ptr %184, i32 0, i32 2
  %186 = load i8, ptr %185, align 4, !tbaa !125
  %187 = zext i8 %186 to i32
  %188 = add nsw i32 3, %187
  %189 = load ptr, ptr %5, align 8, !tbaa !3
  %190 = getelementptr inbounds nuw %struct.H5F_t, ptr %189, i32 0, i32 2
  %191 = load ptr, ptr %190, align 8, !tbaa !31
  %192 = getelementptr inbounds nuw %struct.H5F_shared_t, ptr %191, i32 0, i32 1
  %193 = load ptr, ptr %192, align 8, !tbaa !109
  %194 = getelementptr inbounds nuw %struct.H5F_super_t, ptr %193, i32 0, i32 2
  %195 = load i8, ptr %194, align 4, !tbaa !125
  %196 = zext i8 %195 to i32
  %197 = add nsw i32 %188, %196
  %198 = load ptr, ptr %5, align 8, !tbaa !3
  %199 = getelementptr inbounds nuw %struct.H5F_t, ptr %198, i32 0, i32 2
  %200 = load ptr, ptr %199, align 8, !tbaa !31
  %201 = getelementptr inbounds nuw %struct.H5F_shared_t, ptr %200, i32 0, i32 1
  %202 = load ptr, ptr %201, align 8, !tbaa !109
  %203 = getelementptr inbounds nuw %struct.H5F_super_t, ptr %202, i32 0, i32 2
  %204 = load i8, ptr %203, align 4, !tbaa !125
  %205 = zext i8 %204 to i32
  %206 = add nsw i32 %197, %205
  %207 = load ptr, ptr %5, align 8, !tbaa !3
  %208 = getelementptr inbounds nuw %struct.H5F_t, ptr %207, i32 0, i32 2
  %209 = load ptr, ptr %208, align 8, !tbaa !31
  %210 = getelementptr inbounds nuw %struct.H5F_shared_t, ptr %209, i32 0, i32 1
  %211 = load ptr, ptr %210, align 8, !tbaa !109
  %212 = getelementptr inbounds nuw %struct.H5F_super_t, ptr %211, i32 0, i32 2
  %213 = load i8, ptr %212, align 4, !tbaa !125
  %214 = zext i8 %213 to i32
  %215 = add nsw i32 %206, %214
  %216 = add nsw i32 %215, 4
  br label %218

217:                                              ; preds = %168
  br label %218

218:                                              ; preds = %217, %179
  %219 = phi i32 [ %216, %179 ], [ 0, %217 ]
  %220 = add nsw i32 %170, %219
  %221 = add nsw i32 9, %220
  %222 = sext i32 %221 to i64
  %223 = load ptr, ptr %6, align 8, !tbaa !130
  store i64 %222, ptr %223, align 8, !tbaa !8
  br label %224

224:                                              ; preds = %218, %28
  %225 = load ptr, ptr %7, align 8, !tbaa !130
  %226 = icmp ne ptr %225, null
  br i1 %226, label %227, label %280

227:                                              ; preds = %224
  %228 = load ptr, ptr %5, align 8, !tbaa !3
  %229 = getelementptr inbounds nuw %struct.H5F_t, ptr %228, i32 0, i32 2
  %230 = load ptr, ptr %229, align 8, !tbaa !31
  %231 = getelementptr inbounds nuw %struct.H5F_shared_t, ptr %230, i32 0, i32 1
  %232 = load ptr, ptr %231, align 8, !tbaa !109
  %233 = getelementptr inbounds nuw %struct.H5F_super_t, ptr %232, i32 0, i32 8
  %234 = load i64, ptr %233, align 8, !tbaa !82
  %235 = icmp ne i64 %234, -1
  br i1 %235, label %236, label %277

236:                                              ; preds = %227
  call void @llvm.lifetime.start.p0(i64 24, ptr %11) #7
  call void @llvm.lifetime.start.p0(i64 64, ptr %12) #7
  %237 = call i32 @H5O_loc_reset(ptr noundef %11)
  %238 = load ptr, ptr %5, align 8, !tbaa !3
  %239 = getelementptr inbounds nuw %struct.H5O_loc_t, ptr %11, i32 0, i32 0
  store ptr %238, ptr %239, align 8, !tbaa !18
  %240 = load ptr, ptr %5, align 8, !tbaa !3
  %241 = getelementptr inbounds nuw %struct.H5F_t, ptr %240, i32 0, i32 2
  %242 = load ptr, ptr %241, align 8, !tbaa !31
  %243 = getelementptr inbounds nuw %struct.H5F_shared_t, ptr %242, i32 0, i32 1
  %244 = load ptr, ptr %243, align 8, !tbaa !109
  %245 = getelementptr inbounds nuw %struct.H5F_super_t, ptr %244, i32 0, i32 8
  %246 = load i64, ptr %245, align 8, !tbaa !82
  %247 = getelementptr inbounds nuw %struct.H5O_loc_t, ptr %11, i32 0, i32 1
  store i64 %246, ptr %247, align 8, !tbaa !20
  call void @H5AC_set_ring(i32 noundef 4, ptr noundef %8)
  %248 = call i32 @H5O_get_hdr_info(ptr noundef %11, ptr noundef %12)
  %249 = icmp slt i32 %248, 0
  br i1 %249, label %250, label %269

250:                                              ; preds = %236
  br label %251

251:                                              ; preds = %250
  br label %252

252:                                              ; preds = %251
  br label %253

253:                                              ; preds = %252
  %254 = load i64, ptr @H5E_FILE_g, align 8, !tbaa !8
  %255 = load i64, ptr @H5E_CANTGET_g, align 8, !tbaa !8
  %256 = call i32 (ptr, ptr, i32, i64, i64, ptr, ...) @H5E_printf_stack(ptr noundef @.str.1, ptr noundef @__func__.H5F__super_size, i32 noundef 1629, i64 noundef %254, i64 noundef %255, ptr noundef @.str.92)
  br label %257

257:                                              ; preds = %253
  br label %258

258:                                              ; preds = %257
  store i8 1, ptr %10, align 1, !tbaa !14
  %259 = load i8, ptr %10, align 1, !tbaa !14, !range !16, !noundef !17
  %260 = trunc i8 %259 to i1
  %261 = zext i1 %260 to i8
  store i8 %261, ptr %10, align 1, !tbaa !14
  br label %262

262:                                              ; preds = %258
  br label %263

263:                                              ; preds = %262
  br label %264

264:                                              ; preds = %263
  store i32 -1, ptr %9, align 4, !tbaa !12
  store i32 10, ptr %13, align 4
  br label %274

265:                                              ; No predecessors!
  br label %266

266:                                              ; preds = %265
  br label %267

267:                                              ; preds = %266
  br label %268

268:                                              ; preds = %267
  br label %269

269:                                              ; preds = %268, %236
  %270 = getelementptr inbounds nuw %struct.H5O_hdr_info_t, ptr %12, i32 0, i32 4
  %271 = getelementptr inbounds nuw %struct.anon, ptr %270, i32 0, i32 0
  %272 = load i64, ptr %271, align 8, !tbaa !131
  %273 = load ptr, ptr %7, align 8, !tbaa !130
  store i64 %272, ptr %273, align 8, !tbaa !8
  store i32 0, ptr %13, align 4
  br label %274

274:                                              ; preds = %264, %269
  call void @llvm.lifetime.end.p0(i64 64, ptr %12) #7
  call void @llvm.lifetime.end.p0(i64 24, ptr %11) #7
  %275 = load i32, ptr %13, align 4
  switch i32 %275, label %289 [
    i32 0, label %276
    i32 10, label %281
  ]

276:                                              ; preds = %274
  br label %279

277:                                              ; preds = %227
  %278 = load ptr, ptr %7, align 8, !tbaa !130
  store i64 0, ptr %278, align 8, !tbaa !8
  br label %279

279:                                              ; preds = %277, %276
  br label %280

280:                                              ; preds = %279, %224
  br label %281

281:                                              ; preds = %280, %274
  %282 = load i32, ptr %8, align 4, !tbaa !12
  %283 = icmp ne i32 %282, 0
  br i1 %283, label %284, label %286

284:                                              ; preds = %281
  %285 = load i32, ptr %8, align 4, !tbaa !12
  call void @H5AC_set_ring(i32 noundef %285, ptr noundef null)
  br label %286

286:                                              ; preds = %284, %281
  br label %287

287:                                              ; preds = %286, %20
  %288 = load i32, ptr %9, align 4, !tbaa !12
  store i32 %288, ptr %4, align 4
  store i32 1, ptr %13, align 4
  br label %289

289:                                              ; preds = %287, %274
  call void @llvm.lifetime.end.p0(i64 1, ptr %10) #7
  call void @llvm.lifetime.end.p0(i64 4, ptr %9) #7
  call void @llvm.lifetime.end.p0(i64 4, ptr %8) #7
  %290 = load i32, ptr %4, align 4
  ret i32 %290
}