; Function Attrs: nounwind uwtable
define range(i32 -1, 1) i32 @H5F__super_size(ptr noundef %0, ptr noundef writeonly captures(address_is_null) %1, ptr noundef writeonly captures(address_is_null) %2) local_unnamed_addr #0 {
  %4 = alloca i32, align 4
  %5 = alloca %struct.H5O_loc_t, align 8
  %6 = alloca %struct.H5O_hdr_info_t, align 8
  call void @llvm.lifetime.start.p0(i64 4, ptr nonnull %4) #6
  store i32 0, ptr %4, align 4, !tbaa !17
  %7 = load i8, ptr @H5F_init_g, align 1, !tbaa !3, !range !7, !noundef !8
  %8 = trunc nuw i8 %7 to i1
  %9 = load i8, ptr @H5_libterm_g, align 1, !range !7
  %10 = trunc nuw i8 %9 to i1
  %11 = xor i1 %10, true
  %12 = select i1 %8, i1 true, i1 %11
  br i1 %12, label %13, label %.thread43, !prof !9

13:                                               ; preds = %3
  %.not = icmp eq ptr %1, null
  br i1 %.not, label %43, label %14

14:                                               ; preds = %13
  %15 = getelementptr inbounds nuw i8, ptr %0, i64 16
  %16 = load ptr, ptr %15, align 8, !tbaa !25
  %17 = getelementptr inbounds nuw i8, ptr %16, i64 8
  %18 = load ptr, ptr %17, align 8, !tbaa !102
  %19 = getelementptr inbounds nuw i8, ptr %18, i64 248
  %20 = load i32, ptr %19, align 8, !tbaa !58
  %21 = getelementptr inbounds nuw i8, ptr %18, i64 252
  %22 = load i8, ptr %21, align 4, !tbaa !116
  %23 = zext i8 %22 to i32
  %24 = shl nuw nsw i32 %23, 2
  switch i32 %20, label %38 [
    i32 0, label %.thread
    i32 1, label %31
  ]

.thread:                                          ; preds = %14
  %25 = getelementptr inbounds nuw i8, ptr %18, i64 253
  %26 = load i8, ptr %25, align 1, !tbaa !118
  %27 = zext i8 %26 to i32
  %28 = add nuw nsw i32 %23, 39
  %29 = add nuw nsw i32 %28, %27
  %30 = add nuw nsw i32 %29, %24
  br label %.thread42

31:                                               ; preds = %14
  %32 = getelementptr inbounds nuw i8, ptr %18, i64 253
  %33 = load i8, ptr %32, align 1, !tbaa !118
  %34 = zext i8 %33 to i32
  %35 = add nuw nsw i32 %23, 43
  %36 = add nuw nsw i32 %35, %34
  %37 = add nuw nsw i32 %36, %24
  br label %.thread42

38:                                               ; preds = %14
  %39 = add nuw nsw i32 %24, 7
  br label %.thread42

.thread42:                                        ; preds = %31, %.thread, %38
  %40 = phi i32 [ %39, %38 ], [ %30, %.thread ], [ %37, %31 ]
  %41 = add nuw nsw i32 %40, 9
  %42 = zext nneg i32 %41 to i64
  store i64 %42, ptr %1, align 8, !tbaa !16
  br label %43

43:                                               ; preds = %.thread42, %13
  %.not38 = icmp eq ptr %2, null
  br i1 %.not38, label %.thread43, label %44

44:                                               ; preds = %43
  %45 = getelementptr inbounds nuw i8, ptr %0, i64 16
  %46 = load ptr, ptr %45, align 8, !tbaa !25
  %47 = getelementptr inbounds nuw i8, ptr %46, i64 8
  %48 = load ptr, ptr %47, align 8, !tbaa !102
  %49 = getelementptr inbounds nuw i8, ptr %48, i64 280
  %50 = load i64, ptr %49, align 8, !tbaa !75
  %.not39 = icmp eq i64 %50, -1
  br i1 %.not39, label %68, label %51

51:                                               ; preds = %44
  call void @llvm.lifetime.start.p0(i64 24, ptr nonnull %5) #6
  call void @llvm.lifetime.start.p0(i64 64, ptr nonnull %6) #6
  %52 = call i32 @H5O_loc_reset(ptr noundef nonnull %5) #6
  store ptr %0, ptr %5, align 8, !tbaa !10
  %53 = load ptr, ptr %45, align 8, !tbaa !25
  %54 = getelementptr inbounds nuw i8, ptr %53, i64 8
  %55 = load ptr, ptr %54, align 8, !tbaa !102
  %56 = getelementptr inbounds nuw i8, ptr %55, i64 280
  %57 = load i64, ptr %56, align 8, !tbaa !75
  %58 = getelementptr inbounds nuw i8, ptr %5, i64 8
  store i64 %57, ptr %58, align 8, !tbaa !15
  call void @H5AC_set_ring(i32 noundef 4, ptr noundef nonnull %4) #6
  %59 = call i32 @H5O_get_hdr_info(ptr noundef nonnull %5, ptr noundef nonnull %6) #6
  %60 = icmp slt i32 %59, 0
  br i1 %60, label %61, label %65

61:                                               ; preds = %51
  %62 = load i64, ptr @H5E_FILE_g, align 8, !tbaa !16
  %63 = load i64, ptr @H5E_CANTGET_g, align 8, !tbaa !16
  %64 = call i32 (ptr, ptr, i32, i64, i64, ptr, ...) @H5E_printf_stack(ptr noundef nonnull @.str.1, ptr noundef nonnull @__func__.H5F__super_size, i32 noundef 1629, i64 noundef %62, i64 noundef %63, ptr noundef nonnull @.str.92) #6
  br label %69

65:                                               ; preds = %51
  %66 = getelementptr inbounds nuw i8, ptr %6, i64 16
  %67 = load i64, ptr %66, align 8, !tbaa !120
  store i64 %67, ptr %2, align 8, !tbaa !16
  br label %69

68:                                               ; preds = %44
  store i64 0, ptr %2, align 8, !tbaa !16
  br label %.thread43

69:                                               ; preds = %61, %65
  %.1 = phi i32 [ -1, %61 ], [ 0, %65 ]
  call void @llvm.lifetime.end.p0(i64 64, ptr nonnull %6) #6
  call void @llvm.lifetime.end.p0(i64 24, ptr nonnull %5) #6
  %.pre = load i32, ptr %4, align 4, !tbaa !17
  %.not40 = icmp eq i32 %.pre, 0
  br i1 %.not40, label %.thread43, label %70

70:                                               ; preds = %69
  call void @H5AC_set_ring(i32 noundef %.pre, ptr noundef null) #6
  br label %.thread43

.thread43:                                        ; preds = %43, %68, %3, %70, %69
  %.031 = phi i32 [ %.1, %70 ], [ %.1, %69 ], [ 0, %3 ], [ 0, %68 ], [ 0, %43 ]
  call void @llvm.lifetime.end.p0(i64 4, ptr nonnull %4) #6
  ret i32 %.031
}